target datalayout = "e-m:e-p270:32:32-p271:32:32-p272:64:64-i64:64-i128:128-f80:128-n8:16:32:64-S128"
target triple = "x86_64-pc-linux-gnu"

%"class.toku::wfg" = type { %"class.toku::omt" }
%"class.toku::omt" = type { i8, i32, %union.anon }
%union.anon = type { %"struct.toku::omt<toku::wfg::node *>::omt_array" }
%"struct.toku::omt<toku::wfg::node *>::omt_array" = type { i32, i32, ptr }

; Function Attrs: mustprogress nounwind uwtable
define linkonce_odr void @_ZN4toku3omtIPNS_3wfg4nodeES3_Lb0EE24create_internal_no_arrayEj(ptr noundef nonnull align 8 dereferenceable(24) %0, i32 noundef %1) #3 comdat align 2 {
  %3 = alloca ptr, align 8
  %4 = alloca i32, align 4
  store ptr %0, ptr %3, align 8, !tbaa !9
  store i32 %1, ptr %4, align 4, !tbaa !11
  %5 = load ptr, ptr %3, align 8
  %6 = getelementptr inbounds nuw %"class.toku::omt", ptr %5, i32 0, i32 0
  store i8 1, ptr %6, align 8, !tbaa !17
  %7 = getelementptr inbounds nuw %"class.toku::omt", ptr %5, i32 0, i32 2
  %8 = getelementptr inbounds nuw %"struct.toku::omt<toku::wfg::node *>::omt_array", ptr %7, i32 0, i32 0
  store i32 0, ptr %8, align 8, !tbaa !22
  %9 = getelementptr inbounds nuw %"class.toku::omt", ptr %5, i32 0, i32 2
  %10 = getelementptr inbounds nuw %"struct.toku::omt<toku::wfg::node *>::omt_array", ptr %9, i32 0, i32 1
  store i32 0, ptr %10, align 4, !tbaa !22
  %11 = getelementptr inbounds nuw %"class.toku::omt", ptr %5, i32 0, i32 2
  %12 = getelementptr inbounds nuw %"struct.toku::omt<toku::wfg::node *>::omt_array", ptr %11, i32 0, i32 2
  store ptr null, ptr %12, align 8, !tbaa !22
  %13 = load i32, ptr %4, align 4, !tbaa !11
  %14 = getelementptr inbounds nuw %"class.toku::omt", ptr %5, i32 0, i32 1
  store i32 %13, ptr %14, align 4, !tbaa !26
  ret void
}

; Function Attrs: mustprogress uwtable
define linkonce_odr void @_ZN4toku3omtIPNS_3wfg4nodeES3_Lb0EE15create_internalEj(ptr noundef nonnull align 8 dereferenceable(24) %0, i32 noundef %1) #0 comdat align 2 {
  %3 = alloca ptr, align 8
  %4 = alloca i32, align 4
  store ptr %0, ptr %3, align 8, !tbaa !9
  store i32 %1, ptr %4, align 4, !tbaa !11
  %5 = load ptr, ptr %3, align 8
  %6 = load i32, ptr %4, align 4, !tbaa !11
  call void @_ZN4toku3omtIPNS_3wfg4nodeES3_Lb0EE24create_internal_no_arrayEj(ptr noundef nonnull align 8 dereferenceable(24) %5, i32 noundef %6)
  %7 = getelementptr inbounds nuw %"class.toku::omt", ptr %5, i32 0, i32 1
  %8 = load i32, ptr %7, align 4, !tbaa !26
  %9 = zext i32 %8 to i64
  %10 = mul i64 %9, 8
  %11 = call noundef ptr @_Z12toku_xmallocm(i64 noundef %10)
  %12 = getelementptr inbounds nuw %"class.toku::omt", ptr %5, i32 0, i32 2
  %13 = getelementptr inbounds nuw %"struct.toku::omt<toku::wfg::node *>::omt_array", ptr %12, i32 0, i32 2
  store ptr %11, ptr %13, align 8, !tbaa !22
  ret void
}

; Function Attrs: mustprogress uwtable
define linkonce_odr void @_ZN4toku3omtIPNS_3wfg4nodeES3_Lb0EE6createEv(ptr noundef nonnull align 8 dereferenceable(24) %0) #0 comdat align 2 {
  %2 = alloca ptr, align 8
  store ptr %0, ptr %2, align 8, !tbaa !9
  %3 = load ptr, ptr %2, align 8
  call void @_ZN4toku3omtIPNS_3wfg4nodeES3_Lb0EE15create_internalEj(ptr noundef nonnull align 8 dereferenceable(24) %3, i32 noundef 2)
  ret void
}

; Function Attrs: mustprogress uwtable
define void @_ZN4toku3wfg6createEv(ptr noundef nonnull align 8 dereferenceable(24) %0) #0 align 2 {
  %2 = alloca ptr, align 8
  store ptr %0, ptr %2, align 8, !tbaa !4
  %3 = load ptr, ptr %2, align 8
  %4 = getelementptr inbounds nuw %"class.toku::wfg", ptr %3, i32 0, i32 0
  call void @_ZN4toku3omtIPNS_3wfg4nodeES3_Lb0EE6createEv(ptr noundef nonnull align 8 dereferenceable(24) %4)
  ret void
}