; Function Attrs: mustprogress uwtable
define void @_ZN4toku3wfg6createEv(ptr noundef nonnull writeonly align 8 captures(none) dereferenceable(24) initializes((0, 1), (4, 24)) %0) local_unnamed_addr #0 align 2 {
  store i8 1, ptr %0, align 8, !tbaa !4
  %2 = getelementptr inbounds nuw i8, ptr %0, i64 8
  %3 = getelementptr inbounds nuw i8, ptr %0, i64 4
  tail call void @llvm.memset.p0.i64(ptr noundef nonnull align 8 dereferenceable(16) %2, i8 0, i64 16, i1 false)
  store i32 2, ptr %3, align 4, !tbaa !10
  %4 = tail call noundef ptr @_Z12toku_xmallocm(i64 noundef 16)
  %5 = getelementptr inbounds nuw i8, ptr %0, i64 16
  store ptr %4, ptr %5, align 8, !tbaa !11
  ret void
}